target datalayout = "e-m:e-p270:32:32-p271:32:32-p272:64:64-i64:64-i128:128-f80:128-n8:16:32:64-S128"
target triple = "x86_64-pc-linux-gnu"

%struct.client = type { i64, i64, ptr, i8, i8, i8, i8, i32, ptr, ptr, ptr, ptr, ptr, i64, i64, i32, ptr, i32, i32, ptr, i64, ptr, ptr, ptr, ptr, ptr, i32, i32, i64, ptr, i64, ptr, i64, i64, i64, i32, ptr, i64, i64, i32, i32, i32, i32, i64, i64, ptr, i64, i64, i64, i64, i64, i64, i64, i64, [41 x i8], i32, ptr, i32, i32, i64, %struct.multiState, %struct.blockingState, i64, ptr, ptr, ptr, ptr, ptr, ptr, ptr, ptr, ptr, ptr, ptr, ptr, ptr, ptr, i64, ptr, i64, i32, ptr, ptr, ptr, i64, %struct.listNode, i64, i64, i32, i64, ptr }
%struct.multiState = type { ptr, i32, i32, i32, i64, i32 }
%struct.blockingState = type { i32, i64, i32, ptr, i32, i32, i64, ptr, ptr, i64 }
%struct.listNode = type { ptr, ptr, ptr }

; Function Attrs: nounwind uwtable
define dso_local ptr @lookupKeyWriteWithFlags(ptr noundef %0, ptr noundef %1, i32 noundef %2) #0 {
  %4 = alloca ptr, align 8
  %5 = alloca ptr, align 8
  %6 = alloca i32, align 4
  store ptr %0, ptr %4, align 8, !tbaa !12
  store ptr %1, ptr %5, align 8, !tbaa !5
  store i32 %2, ptr %6, align 4, !tbaa !14
  %7 = load ptr, ptr %4, align 8, !tbaa !12
  %8 = load ptr, ptr %5, align 8, !tbaa !5
  %9 = load i32, ptr %6, align 4, !tbaa !14
  %10 = or i32 %9, 8
  %11 = call ptr @lookupKey(ptr noundef %7, ptr noundef %8, i32 noundef %10, ptr noundef null)
  ret ptr %11
}

; Function Attrs: nounwind uwtable
define dso_local ptr @lookupKeyWrite(ptr noundef %0, ptr noundef %1) #0 {
  %3 = alloca ptr, align 8
  %4 = alloca ptr, align 8
  store ptr %0, ptr %3, align 8, !tbaa !12
  store ptr %1, ptr %4, align 8, !tbaa !5
  %5 = load ptr, ptr %3, align 8, !tbaa !12
  %6 = load ptr, ptr %4, align 8, !tbaa !5
  %7 = call ptr @lookupKeyWriteWithFlags(ptr noundef %5, ptr noundef %6, i32 noundef 0)
  ret ptr %7
}

; Function Attrs: nounwind uwtable
define dso_local ptr @lookupKeyWriteOrReply(ptr noundef %0, ptr noundef %1, ptr noundef %2) #0 {
  %4 = alloca ptr, align 8
  %5 = alloca ptr, align 8
  %6 = alloca ptr, align 8
  %7 = alloca ptr, align 8
  store ptr %0, ptr %4, align 8, !tbaa !76
  store ptr %1, ptr %5, align 8, !tbaa !5
  store ptr %2, ptr %6, align 8, !tbaa !5
  call void @llvm.lifetime.start.p0(i64 8, ptr %7) #15
  %8 = load ptr, ptr %4, align 8, !tbaa !76
  %9 = getelementptr inbounds nuw %struct.client, ptr %8, i32 0, i32 8
  %10 = load ptr, ptr %9, align 8, !tbaa !77
  %11 = load ptr, ptr %5, align 8, !tbaa !5
  %12 = call ptr @lookupKeyWrite(ptr noundef %10, ptr noundef %11)
  store ptr %12, ptr %7, align 8, !tbaa !5
  %13 = load ptr, ptr %7, align 8, !tbaa !5
  %14 = icmp ne ptr %13, null
  br i1 %14, label %18, label %15

15:                                               ; preds = %3
  %16 = load ptr, ptr %4, align 8, !tbaa !76
  %17 = load ptr, ptr %6, align 8, !tbaa !5
  call void @addReplyOrErrorObject(ptr noundef %16, ptr noundef %17)
  br label %18

18:                                               ; preds = %15, %3
  %19 = load ptr, ptr %7, align 8, !tbaa !5
  call void @llvm.lifetime.end.p0(i64 8, ptr %7) #15
  ret ptr %19
}